; Function Attrs: mustprogress uwtable
define void @_ZN6icu_7511ICU_Utility22parseUnicodeIdentifierERKNS_13UnicodeStringERi(ptr noalias sret(%"class.icu_75::UnicodeString") align 8 %agg.result, ptr noundef nonnull align 8 dereferenceable(64) %str, ptr nocapture noundef nonnull align 4 dereferenceable(4) %pos) local_unnamed_addr #1 align 2 personality ptr @__gxx_personality_v0 {
entry:
  store ptr getelementptr inbounds ({ [13 x ptr] }, ptr @_ZTVN6icu_7513UnicodeStringE, i64 0, i32 0, i64 2), ptr %agg.result, align 8
  %fUnion2.i = getelementptr inbounds i8, ptr %agg.result, i64 8
  store i16 2, ptr %fUnion2.i, align 8
  %0 = load i32, ptr %pos, align 4
  %fUnion.i.i = getelementptr inbounds i8, ptr %str, i64 8
  %fLength.i = getelementptr inbounds i8, ptr %str, i64 12
  %1 = load i16, ptr %fUnion.i.i, align 8
  %cmp.i.i20 = icmp slt i16 %1, 0
  %2 = ashr i16 %1, 5
  %shr.i.i21 = sext i16 %2 to i32
  %3 = load i32, ptr %fLength.i, align 4
  %cond.i22 = select i1 %cmp.i.i20, i32 %3, i32 %shr.i.i21
  %cmp24 = icmp slt i32 %0, %cond.i22
  br i1 %cmp24, label %while.body.lr.ph, label %while.end

while.body.lr.ph:                                 ; preds = %entry
  %fLength.i13 = getelementptr inbounds i8, ptr %agg.result, i64 12
  br label %while.body

while.body:                                       ; preds = %while.body.lr.ph, %if.end22
  %p.025 = phi i32 [ %0, %while.body.lr.ph ], [ %add, %if.end22 ]
  %call2 = invoke noundef i32 @_ZNK6icu_7513UnicodeString8char32AtEi(ptr noundef nonnull align 8 dereferenceable(64) %str, i32 noundef %p.025)
          to label %invoke.cont3 unwind label %lpad.loopexit

invoke.cont3:                                     ; preds = %while.body
  %4 = load i16, ptr %fUnion2.i, align 8
  %cmp.i.i11 = icmp slt i16 %4, 0
  %5 = ashr i16 %4, 5
  %shr.i.i12 = sext i16 %5 to i32
  %6 = load i32, ptr %fLength.i13, align 4
  %cond.i14 = select i1 %cmp.i.i11, i32 %6, i32 %shr.i.i12
  %cmp5 = icmp eq i32 %cond.i14, 0
  br i1 %cmp5, label %if.then, label %if.else13

if.then:                                          ; preds = %invoke.cont3
  %call7 = invoke signext i8 @u_isIDStart_75(i32 noundef %call2)
          to label %invoke.cont6 unwind label %lpad.loopexit

invoke.cont6:                                     ; preds = %if.then
  %tobool.not = icmp eq i8 %call7, 0
  br i1 %tobool.not, label %if.else, label %if.then8.invoke

if.then8.invoke:                                  ; preds = %invoke.cont6, %invoke.cont14
  %7 = invoke noundef nonnull align 8 dereferenceable(64) ptr @_ZN6icu_7513UnicodeString6appendEi(ptr noundef nonnull align 8 dereferenceable(64) %agg.result, i32 noundef %call2)
          to label %if.end22 unwind label %lpad.loopexit

lpad.loopexit:                                    ; preds = %if.then8.invoke, %while.body, %if.then, %if.else13
  %lpad.loopexit16 = landingpad { ptr, i32 }
          cleanup
  br label %lpad

lpad.loopexit.split-lp:                           ; preds = %if.then.i
  %lpad.loopexit.split-lp17 = landingpad { ptr, i32 }
          cleanup
  br label %lpad

lpad:                                             ; preds = %lpad.loopexit.split-lp, %lpad.loopexit
  %lpad.phi = phi { ptr, i32 } [ %lpad.loopexit16, %lpad.loopexit ], [ %lpad.loopexit.split-lp17, %lpad.loopexit.split-lp ]
  tail call void @_ZN6icu_7513UnicodeStringD1Ev(ptr noundef nonnull align 8 dereferenceable(64) %agg.result) #8
  resume { ptr, i32 } %lpad.phi

if.else:                                          ; preds = %invoke.cont6
  %8 = load i16, ptr %fUnion2.i, align 8
  %conv2.i5.i = and i16 %8, 1
  %tobool.i.not = icmp eq i16 %conv2.i5.i, 0
  br i1 %tobool.i.not, label %if.else.i, label %if.then.i

if.then.i:                                        ; preds = %if.else
  invoke void @_ZN6icu_7513UnicodeString7unBogusEv(ptr noundef nonnull align 8 dereferenceable(64) %agg.result)
          to label %nrvo.skipdtor unwind label %lpad.loopexit.split-lp

if.else.i:                                        ; preds = %if.else
  %cmp.i.i.i = icmp slt i16 %8, 0
  %9 = ashr i16 %8, 5
  %shr.i.i.i = sext i16 %9 to i32
  %10 = load i32, ptr %fLength.i13, align 4
  %cond.i.i = select i1 %cmp.i.i.i, i32 %10, i32 %shr.i.i.i
  %cmp3.i.not = icmp eq i32 %cond.i.i, 0
  br i1 %cmp3.i.not, label %nrvo.skipdtor, label %if.then4.i

if.then4.i:                                       ; preds = %if.else.i
  %11 = and i16 %8, 30
  store i16 %11, ptr %fUnion2.i, align 8
  br label %nrvo.skipdtor

if.else13:                                        ; preds = %invoke.cont3
  %call15 = invoke signext i8 @u_isIDPart_75(i32 noundef %call2)
          to label %invoke.cont14 unwind label %lpad.loopexit

invoke.cont14:                                    ; preds = %if.else13
  %tobool16.not = icmp eq i8 %call15, 0
  br i1 %tobool16.not, label %while.end, label %if.then8.invoke

if.end22:                                         ; preds = %if.then8.invoke
  %cmp23 = icmp ult i32 %call2, 65536
  %cond = select i1 %cmp23, i32 1, i32 2
  %add = add nsw i32 %cond, %p.025
  %12 = load i16, ptr %fUnion.i.i, align 8
  %cmp.i.i = icmp slt i16 %12, 0
  %13 = ashr i16 %12, 5
  %shr.i.i = sext i16 %13 to i32
  %14 = load i32, ptr %fLength.i, align 4
  %cond.i = select i1 %cmp.i.i, i32 %14, i32 %shr.i.i
  %cmp = icmp slt i32 %add, %cond.i
  br i1 %cmp, label %while.body, label %while.end, !llvm.loop !8

while.end:                                        ; preds = %if.end22, %invoke.cont14, %entry
  %p.0.lcssa = phi i32 [ %0, %entry ], [ %p.025, %invoke.cont14 ], [ %add, %if.end22 ]
  store i32 %p.0.lcssa, ptr %pos, align 4
  br label %nrvo.skipdtor

nrvo.skipdtor:                                    ; preds = %if.then4.i, %if.else.i, %if.then.i, %while.end
  ret void
}